target datalayout = "e-m:e-p270:32:32-p271:32:32-p272:64:64-i64:64-i128:128-f80:128-n8:16:32:64-S128"
target triple = "x86_64-pc-linux-gnu"

%class.ErrorHandler = type <{ i32, i32, i8, i8, i8, i8, i8, i8, [2 x i8] }>
%class.RecVolumes3 = type { [256 x ptr], %class.Array }
%class.Array = type { ptr, i64, i64, i64 }
%class.RarTime = type { i64 }
%class.Archive = type <{ %class.File, %class.CryptData, %class.ComprDataIO, i8, [7 x i8], ptr, %class.RarTime, i32, i32, i8, [7 x i8], %class.QuickOpen, i8, [3 x i8], %struct.BaseBlock, %struct.MarkHeader, [4 x i8], %struct.MainHeader, %struct.CryptHeader, [4 x i8], %struct.FileHeader, %struct.EndArcHeader, %struct.SubBlockHeader, [4 x i8], %struct.FileHeader, %struct.CommentHeader, %struct.ProtectHeader, %struct.EAHeader, %struct.StreamHeader, [4 x i8], i64, i64, i32, i8, i8, i8, i8, i8, i8, i8, i8, i8, [3 x i8], i64, i8, i8, [16 x i8], i8, i8, i32, i64, i64, i64, i8, [3 x i8], [2048 x i32], [4 x i8] }>
%class.File = type { ptr, i64, i8, i32, i8, i8, i32, i8, i8, i8, i8, i8, i64, i8, [2048 x i32], i32, ptr }
%class.CryptData = type { [4 x %"struct.CryptData::KDF3CacheItem"], i32, [4 x i8], [4 x %"struct.CryptData::KDF5CacheItem"], i32, i32, %class.Rijndael, [256 x i32], [256 x i8], [4 x i32], [3 x i8], [4 x i16], [4 x i8] }
%"struct.CryptData::KDF3CacheItem" = type { %class.SecPassword, [8 x i8], [16 x i8], [16 x i8], i8, [7 x i8] }
%class.SecPassword = type <{ %"class.std::vector", i8, [7 x i8] }>
%"class.std::vector" = type { %"struct.std::_Vector_base" }
%"struct.std::_Vector_base" = type { %"struct.std::_Vector_base<wchar_t, std::allocator<wchar_t>>::_Vector_impl" }
%"struct.std::_Vector_base<wchar_t, std::allocator<wchar_t>>::_Vector_impl" = type { %"struct.std::_Vector_base<wchar_t, std::allocator<wchar_t>>::_Vector_impl_data" }
%"struct.std::_Vector_base<wchar_t, std::allocator<wchar_t>>::_Vector_impl_data" = type { ptr, ptr, ptr }
%"struct.CryptData::KDF5CacheItem" = type { %class.SecPassword, [16 x i8], [32 x i8], i32, [32 x i8], [32 x i8], [4 x i8] }
%class.Rijndael = type { i8, i32, [16 x i8], [15 x [4 x [4 x i8]]] }
%class.ComprDataIO = type <{ i8, [7 x i8], i64, ptr, i8, [7 x i8], i64, ptr, i64, ptr, i64, i64, i8, i8, i8, i8, [4 x i8], ptr, ptr, ptr, ptr, ptr, ptr, ptr, i32, i32, i8, i8, i8, [5 x i8], i64, i64, i64, i64, i64, i64, i64, %class.DataHash, %class.DataHash, %class.DataHash, i8, i8, [6 x i8] }>
%class.DataHash = type { i32, i32, ptr }
%class.QuickOpen = type <{ ptr, i8, [7 x i8], ptr, ptr, ptr, i64, %class.CryptData, i8, [7 x i8], i64, i64, i64, i64, i64, i64, %class.Array, i64, i64, i8, [7 x i8] }>
%struct.BaseBlock = type { i32, i32, i32, i32, i8 }
%struct.MarkHeader = type { [8 x i8], i32 }
%struct.MainHeader = type { %struct.BaseBlock, i16, i32, i8, i8, i8, i64, i64, i64, i64, i64, %"class.std::__cxx11::basic_string", %class.RarTime }
%"class.std::__cxx11::basic_string" = type { %"struct.std::__cxx11::basic_string<wchar_t>::_Alloc_hider", i64, %union.anon }
%"struct.std::__cxx11::basic_string<wchar_t>::_Alloc_hider" = type { ptr }
%union.anon = type { i64, [8 x i8] }
%struct.CryptHeader = type { %struct.BaseBlock, i8, i32, [16 x i8], [8 x i8] }
%struct.EndArcHeader = type { %struct.BaseBlock, i32, i32, i8, i8, i8, i8 }
%struct.SubBlockHeader = type <{ %struct.BlockHeader, i16, i8, i8 }>
%struct.BlockHeader = type { %struct.BaseBlock, i32 }
%struct.FileHeader = type { %struct.BlockHeader, i8, i32, i8, %union.anon.0, [2048 x i32], %class.Array, %class.RarTime, %class.RarTime, %class.RarTime, i64, i64, i64, %struct.HashValue, i32, i8, i8, i8, i8, i32, i8, [16 x i8], [16 x i8], i8, [8 x i8], i8, [32 x i8], i32, i8, i8, i8, i8, i64, i8, i8, i8, i32, i32, [2048 x i32], i8, i8, i8, i8, [256 x i8], [256 x i8], i32, i32 }
%union.anon.0 = type { i32 }
%struct.HashValue = type { i32, %union.anon.1 }
%union.anon.1 = type { i32, [28 x i8] }
%struct.CommentHeader = type <{ %struct.BaseBlock, i16, i8, i8, i16, [2 x i8] }>
%struct.ProtectHeader = type { %struct.BlockHeader, i8, i16, i32, [8 x i8] }
%struct.EAHeader = type { %struct.SubBlockHeader.base, i32, i8, i8, i32 }
%struct.SubBlockHeader.base = type <{ %struct.BlockHeader, i16, i8 }>
%struct.StreamHeader = type <{ %struct.SubBlockHeader.base, i8, i32, i8, i8, [2 x i8], i32, i16, [260 x i8], [2 x i8] }>
%class.RecVolumes5 = type { %class.Array.8, ptr, ptr, ptr, ptr, i64, i32, i32, i32, ptr, i32, i32, ptr }
%class.Array.8 = type { ptr, i64, i64, i64 }

@ErrHandler = external global %class.ErrorHandler, align 4
@.str.12 = private unnamed_addr constant [9 x i8] c"Rar!\1ARev\00", align 1
@_ZN11RecVolumes3C1EP11CommandDatab = unnamed_addr alias void (ptr, ptr, i1), ptr @_ZN11RecVolumes3C2EP11CommandDatab
@_ZN11RecVolumes3D1Ev = unnamed_addr alias void (ptr), ptr @_ZN11RecVolumes3D2Ev
@_ZN11RecVolumes5C1EP11CommandDatab = unnamed_addr alias void (ptr, ptr, i1), ptr @_ZN11RecVolumes5C2EP11CommandDatab
@_ZN11RecVolumes5D1Ev = unnamed_addr alias void (ptr), ptr @_ZN11RecVolumes5D2Ev

; Function Attrs: mustprogress uwtable
define noundef zeroext i1 @_Z17RecVolumesRestoreP11CommandDataPKwb(ptr noundef %0, ptr noundef %1, i1 noundef zeroext %2) #0 personality ptr @__gxx_personality_v0 {
  %4 = alloca i1, align 1
  %5 = alloca ptr, align 8
  %6 = alloca ptr, align 8
  %7 = alloca i8, align 1
  %8 = alloca %class.Archive, align 8
  %9 = alloca ptr, align 8
  %10 = alloca i32, align 4
  %11 = alloca i32, align 4
  %12 = alloca i32, align 4
  %13 = alloca [8 x i8], align 1
  %14 = alloca %class.RecVolumes3, align 8
  %15 = alloca %class.RecVolumes5, align 8
  store ptr %0, ptr %5, align 8
  store ptr %1, ptr %6, align 8
  %16 = zext i1 %2 to i8
  store i8 %16, ptr %7, align 1
  %17 = load ptr, ptr %5, align 8
  call void @_ZN7ArchiveC1EP11CommandData(ptr noundef nonnull align 8 dereferenceable(57108) %8, ptr noundef %17)
  %18 = load ptr, ptr %6, align 8
  %19 = invoke noundef zeroext i1 @_ZN7Archive4OpenEPKwj(ptr noundef nonnull align 8 dereferenceable(57108) %8, ptr noundef %18, i32 noundef 0)
          to label %20 unwind label %27

20:                                               ; preds = %3
  br i1 %19, label %32, label %21

21:                                               ; preds = %20
  %22 = load i8, ptr %7, align 1
  %23 = trunc i8 %22 to i1
  br i1 %23, label %31, label %24

24:                                               ; preds = %21
  %25 = load ptr, ptr %6, align 8
  invoke void @_ZN12ErrorHandler12OpenErrorMsgEPKw(ptr noundef nonnull align 4 dereferenceable(14) @ErrHandler, ptr noundef %25)
          to label %26 unwind label %27

26:                                               ; preds = %24
  br label %31

27:                                               ; preds = %68, %55, %50, %39, %38, %32, %24, %3
  %28 = landingpad { ptr, i32 }
          cleanup
  %29 = extractvalue { ptr, i32 } %28, 0
  store ptr %29, ptr %9, align 8
  %30 = extractvalue { ptr, i32 } %28, 1
  store i32 %30, ptr %10, align 4
  br label %83

31:                                               ; preds = %26, %21
  store i1 false, ptr %4, align 1
  store i32 1, ptr %11, align 4
  br label %81

32:                                               ; preds = %20
  store i32 2, ptr %12, align 4
  %33 = invoke noundef zeroext i1 @_ZN7Archive9IsArchiveEb(ptr noundef nonnull align 8 dereferenceable(57108) %8, i1 noundef zeroext true)
          to label %34 unwind label %27

34:                                               ; preds = %32
  br i1 %33, label %35, label %38

35:                                               ; preds = %34
  %36 = getelementptr inbounds %class.Archive, ptr %8, i32 0, i32 32
  %37 = load i32, ptr %36, align 8
  store i32 %37, ptr %12, align 4
  br label %50

38:                                               ; preds = %34
  invoke void @_ZN7Archive4SeekEli(ptr noundef nonnull align 8 dereferenceable(57108) %8, i64 noundef 0, i32 noundef 0)
          to label %39 unwind label %27

39:                                               ; preds = %38
  %40 = getelementptr inbounds [8 x i8], ptr %13, i64 0, i64 0
  %41 = invoke noundef i32 @_ZN7Archive4ReadEPvm(ptr noundef nonnull align 8 dereferenceable(57108) %8, ptr noundef %40, i64 noundef 8)
          to label %42 unwind label %27

42:                                               ; preds = %39
  %43 = icmp eq i32 %41, 8
  br i1 %43, label %44, label %49

44:                                               ; preds = %42
  %45 = getelementptr inbounds [8 x i8], ptr %13, i64 0, i64 0
  %46 = call i32 @memcmp(ptr noundef %45, ptr noundef @.str.12, i64 noundef 8) #15
  %47 = icmp eq i32 %46, 0
  br i1 %47, label %48, label %49

48:                                               ; preds = %44
  store i32 3, ptr %12, align 4
  br label %49

49:                                               ; preds = %48, %44, %42
  br label %50

50:                                               ; preds = %49, %35
  %51 = invoke noundef zeroext i1 @_ZN4File5CloseEv(ptr noundef nonnull align 8 dereferenceable(8256) %8)
          to label %52 unwind label %27

52:                                               ; preds = %50
  %53 = load i32, ptr %12, align 4
  %54 = icmp eq i32 %53, 2
  br i1 %54, label %55, label %68

55:                                               ; preds = %52
  %56 = load ptr, ptr %5, align 8
  invoke void @_ZN11RecVolumes3C1EP11CommandDatab(ptr noundef nonnull align 8 dereferenceable(2080) %14, ptr noundef %56, i1 noundef zeroext false)
          to label %57 unwind label %27

57:                                               ; preds = %55
  %58 = load ptr, ptr %5, align 8
  %59 = load ptr, ptr %6, align 8
  %60 = load i8, ptr %7, align 1
  %61 = trunc i8 %60 to i1
  %62 = invoke noundef zeroext i1 @_ZN11RecVolumes37RestoreEP11CommandDataPKwb(ptr noundef nonnull align 8 dereferenceable(2080) %14, ptr noundef %58, ptr noundef %59, i1 noundef zeroext %61)
          to label %63 unwind label %64

63:                                               ; preds = %57
  store i1 %62, ptr %4, align 1
  store i32 1, ptr %11, align 4
  call void @_ZN11RecVolumes3D1Ev(ptr noundef nonnull align 8 dereferenceable(2080) %14) #11
  br label %81

64:                                               ; preds = %57
  %65 = landingpad { ptr, i32 }
          cleanup
  %66 = extractvalue { ptr, i32 } %65, 0
  store ptr %66, ptr %9, align 8
  %67 = extractvalue { ptr, i32 } %65, 1
  store i32 %67, ptr %10, align 4
  call void @_ZN11RecVolumes3D1Ev(ptr noundef nonnull align 8 dereferenceable(2080) %14) #11
  br label %83

68:                                               ; preds = %52
  %69 = load ptr, ptr %5, align 8
  invoke void @_ZN11RecVolumes5C1EP11CommandDatab(ptr noundef nonnull align 8 dereferenceable(112) %15, ptr noundef %69, i1 noundef zeroext false)
          to label %70 unwind label %27

70:                                               ; preds = %68
  %71 = load ptr, ptr %5, align 8
  %72 = load ptr, ptr %6, align 8
  %73 = load i8, ptr %7, align 1
  %74 = trunc i8 %73 to i1
  %75 = invoke noundef zeroext i1 @_ZN11RecVolumes57RestoreEP11CommandDataPKwb(ptr noundef nonnull align 8 dereferenceable(112) %15, ptr noundef %71, ptr noundef %72, i1 noundef zeroext %74)
          to label %76 unwind label %77

76:                                               ; preds = %70
  store i1 %75, ptr %4, align 1
  store i32 1, ptr %11, align 4
  call void @_ZN11RecVolumes5D1Ev(ptr noundef nonnull align 8 dereferenceable(112) %15) #11
  br label %81

77:                                               ; preds = %70
  %78 = landingpad { ptr, i32 }
          cleanup
  %79 = extractvalue { ptr, i32 } %78, 0
  store ptr %79, ptr %9, align 8
  %80 = extractvalue { ptr, i32 } %78, 1
  store i32 %80, ptr %10, align 4
  call void @_ZN11RecVolumes5D1Ev(ptr noundef nonnull align 8 dereferenceable(112) %15) #11
  br label %83

81:                                               ; preds = %76, %63, %31
  call void @_ZN7ArchiveD1Ev(ptr noundef nonnull align 8 dereferenceable(57108) %8) #11
  %82 = load i1, ptr %4, align 1
  ret i1 %82

83:                                               ; preds = %77, %64, %27
  call void @_ZN7ArchiveD1Ev(ptr noundef nonnull align 8 dereferenceable(57108) %8) #11
  br label %84

84:                                               ; preds = %83
  %85 = load ptr, ptr %9, align 8
  %86 = load i32, ptr %10, align 4
  %87 = insertvalue { ptr, i32 } poison, ptr %85, 0
  %88 = insertvalue { ptr, i32 } %87, i32 %86, 1
  resume { ptr, i32 } %88
}