; Function Attrs: mustprogress uwtable
define noundef zeroext i1 @_Z17RecVolumesRestoreP11CommandDataPKwb(ptr noundef %0, ptr noundef %1, i1 noundef zeroext %2) local_unnamed_addr #0 personality ptr @__gxx_personality_v0 {
  %4 = alloca %class.Archive, align 8
  %5 = alloca [8 x i8], align 1
  %6 = alloca %class.RecVolumes3, align 8
  %7 = alloca %class.RecVolumes5, align 8
  call void @_ZN7ArchiveC1EP11CommandData(ptr noundef nonnull align 8 dereferenceable(57108) %4, ptr noundef %0)
  %8 = invoke noundef zeroext i1 @_ZN7Archive4OpenEPKwj(ptr noundef nonnull align 8 dereferenceable(57108) %4, ptr noundef %1, i32 noundef 0)
          to label %9 unwind label %12

9:                                                ; preds = %3
  br i1 %8, label %14, label %10

10:                                               ; preds = %9
  br i1 %2, label %43, label %11

11:                                               ; preds = %10
  invoke void @_ZN12ErrorHandler12OpenErrorMsgEPKw(ptr noundef nonnull align 4 dereferenceable(14) @ErrHandler, ptr noundef %1)
          to label %43 unwind label %12

12:                                               ; preds = %37, %31, %28, %22, %21, %14, %11, %3
  %13 = landingpad { ptr, i32 }
          cleanup
  br label %44

14:                                               ; preds = %9
  %15 = invoke noundef zeroext i1 @_ZN7Archive9IsArchiveEb(ptr noundef nonnull align 8 dereferenceable(57108) %4, i1 noundef zeroext true)
          to label %16 unwind label %12

16:                                               ; preds = %14
  br i1 %15, label %17, label %21

17:                                               ; preds = %16
  %18 = getelementptr inbounds i8, ptr %4, i64 48840
  %19 = load i32, ptr %18, align 8
  %20 = icmp eq i32 %19, 2
  br label %28

21:                                               ; preds = %16
  invoke void @_ZN7Archive4SeekEli(ptr noundef nonnull align 8 dereferenceable(57108) %4, i64 noundef 0, i32 noundef 0)
          to label %22 unwind label %12

22:                                               ; preds = %21
  %23 = invoke noundef i32 @_ZN7Archive4ReadEPvm(ptr noundef nonnull align 8 dereferenceable(57108) %4, ptr noundef nonnull %5, i64 noundef 8)
          to label %24 unwind label %12

24:                                               ; preds = %22
  %25 = icmp eq i32 %23, 8
  br i1 %25, label %26, label %28

26:                                               ; preds = %24
  %bcmp = call i32 @bcmp(ptr noundef nonnull dereferenceable(8) %5, ptr noundef nonnull dereferenceable(8) @.str.12, i64 8)
  %27 = icmp ne i32 %bcmp, 0
  br label %28

28:                                               ; preds = %26, %24, %17
  %.0 = phi i1 [ %20, %17 ], [ true, %24 ], [ %27, %26 ]
  %29 = invoke noundef zeroext i1 @_ZN4File5CloseEv(ptr noundef nonnull align 8 dereferenceable(8256) %4)
          to label %30 unwind label %12

30:                                               ; preds = %28
  br i1 %.0, label %31, label %37

31:                                               ; preds = %30
  invoke void @_ZN11RecVolumes3C1EP11CommandDatab(ptr noundef nonnull align 8 dereferenceable(2080) %6, ptr noundef %0, i1 noundef zeroext false)
          to label %32 unwind label %12

32:                                               ; preds = %31
  %33 = invoke noundef zeroext i1 @_ZN11RecVolumes37RestoreEP11CommandDataPKwb(ptr noundef nonnull align 8 dereferenceable(2080) %6, ptr noundef %0, ptr noundef %1, i1 noundef zeroext %2)
          to label %34 unwind label %35

34:                                               ; preds = %32
  call void @_ZN11RecVolumes3D1Ev(ptr noundef nonnull align 8 dereferenceable(2080) %6) #14
  br label %43

35:                                               ; preds = %32
  %36 = landingpad { ptr, i32 }
          cleanup
  call void @_ZN11RecVolumes3D1Ev(ptr noundef nonnull align 8 dereferenceable(2080) %6) #14
  br label %44

37:                                               ; preds = %30
  invoke void @_ZN11RecVolumes5C1EP11CommandDatab(ptr noundef nonnull align 8 dereferenceable(112) %7, ptr noundef %0, i1 noundef zeroext false)
          to label %38 unwind label %12

38:                                               ; preds = %37
  %39 = invoke noundef zeroext i1 @_ZN11RecVolumes57RestoreEP11CommandDataPKwb(ptr noundef nonnull align 8 dereferenceable(112) %7, ptr noundef %0, ptr noundef %1, i1 noundef zeroext %2)
          to label %40 unwind label %41

40:                                               ; preds = %38
  call void @_ZN11RecVolumes5D1Ev(ptr noundef nonnull align 8 dereferenceable(112) %7) #14
  br label %43

41:                                               ; preds = %38
  %42 = landingpad { ptr, i32 }
          cleanup
  call void @_ZN11RecVolumes5D1Ev(ptr noundef nonnull align 8 dereferenceable(112) %7) #14
  br label %44

43:                                               ; preds = %10, %11, %40, %34
  %.017 = phi i1 [ %33, %34 ], [ %39, %40 ], [ false, %11 ], [ false, %10 ]
  call void @_ZN7ArchiveD1Ev(ptr noundef nonnull align 8 dereferenceable(57108) %4) #14
  ret i1 %.017

44:                                               ; preds = %41, %35, %12
  %.pn = phi { ptr, i32 } [ %36, %35 ], [ %13, %12 ], [ %42, %41 ]
  call void @_ZN7ArchiveD1Ev(ptr noundef nonnull align 8 dereferenceable(57108) %4) #14
  resume { ptr, i32 } %.pn
}